	.syntax unified
	.cpu cortex-m7
	.eabi_attribute 27, 1
	.fpu fpv5-sp-d16
	.eabi_attribute 20, 1
	.eabi_attribute 21, 1
	.eabi_attribute 23, 3
	.eabi_attribute 24, 1
	.eabi_attribute 25, 1
	.eabi_attribute 26, 1
	.eabi_attribute 30, 6
	.eabi_attribute 34, 1
	.eabi_attribute 18, 4
	.thumb
	.file	"Led_Ctrl.c"
	.text
.Ltext0:
	.cfi_sections	.debug_frame
	.align	2
	.thumb
	.thumb_func
	.type	LED_TurnOn, %function
LED_TurnOn:
.LFB124:
	.file 1 "C:\\VScodeworkspace\\04_SchedulerBase\\04_SchedulerBase\\src\\Application\\LedCtrl\\Led_Ctrl.c"
	.loc 1 49 0
	.cfi_startproc
	@ args = 0, pretend = 0, frame = 8
	@ frame_needed = 1, uses_anonymous_args = 0
	@ link register save eliminated.
	push	{r7}
	.cfi_def_cfa_offset 4
	.cfi_offset 7, -4
	sub	sp, sp, #12
	.cfi_def_cfa_offset 16
	add	r7, sp, #0
	.cfi_def_cfa_register 7
	mov	r3, r0
	strb	r3, [r7, #7]
	.loc 1 51 0
	ldrb	r3, [r7, #7]	@ zero_extendqisi2
	cmp	r3, #0
	bne	.L2
	.loc 1 54 0
	ldr	r2, .L4
	ldr	r3, .L4
	ldr	r3, [r3, #52]
	orr	r3, r3, #8388608
	str	r3, [r2, #52]
	b	.L1
.L2:
	.loc 1 60 0
	ldr	r2, .L4+4
	ldr	r3, .L4+4
	ldr	r3, [r3, #52]
	orr	r3, r3, #512
	str	r3, [r2, #52]
.L1:
	.loc 1 62 0
	adds	r7, r7, #12
	.cfi_def_cfa_offset 4
	mov	sp, r7
	.cfi_def_cfa_register 13
	@ sp needed
	ldr	r7, [sp], #4
	.cfi_restore 7
	.cfi_def_cfa_offset 0
	bx	lr
.L5:
	.align	2
.L4:
	.word	1074662912
	.word	1074663936
	.cfi_endproc
.LFE124:
	.size	LED_TurnOn, .-LED_TurnOn
	.align	2
	.thumb
	.thumb_func
	.type	LED_TurnOff, %function
LED_TurnOff:
.LFB125:
	.loc 1 64 0
	.cfi_startproc
	@ args = 0, pretend = 0, frame = 8
	@ frame_needed = 1, uses_anonymous_args = 0
	@ link register save eliminated.
	push	{r7}
	.cfi_def_cfa_offset 4
	.cfi_offset 7, -4
	sub	sp, sp, #12
	.cfi_def_cfa_offset 16
	add	r7, sp, #0
	.cfi_def_cfa_register 7
	mov	r3, r0
	strb	r3, [r7, #7]
	.loc 1 65 0
	ldrb	r3, [r7, #7]	@ zero_extendqisi2
	cmp	r3, #0
	bne	.L7
	.loc 1 67 0
	ldr	r2, .L9
	ldr	r3, .L9
	ldr	r3, [r3, #48]
	orr	r3, r3, #8388608
	str	r3, [r2, #48]
	b	.L6
.L7:
	.loc 1 71 0
	ldr	r2, .L9+4
	ldr	r3, .L9+4
	ldr	r3, [r3, #48]
	orr	r3, r3, #512
	str	r3, [r2, #48]
.L6:
	.loc 1 73 0
	adds	r7, r7, #12
	.cfi_def_cfa_offset 4
	mov	sp, r7
	.cfi_def_cfa_register 13
	@ sp needed
	ldr	r7, [sp], #4
	.cfi_restore 7
	.cfi_def_cfa_offset 0
	bx	lr
.L10:
	.align	2
.L9:
	.word	1074662912
	.word	1074663936
	.cfi_endproc
.LFE125:
	.size	LED_TurnOff, .-LED_TurnOff
	.align	2
	.global	LedCtrl_Configure
	.thumb
	.thumb_func
	.type	LedCtrl_Configure, %function
LedCtrl_Configure:
.LFB126:
	.loc 1 82 0
	.cfi_startproc
	@ args = 0, pretend = 0, frame = 0
	@ frame_needed = 1, uses_anonymous_args = 0
	push	{r7, lr}
	.cfi_def_cfa_offset 8
	.cfi_offset 7, -8
	.cfi_offset 14, -4
	add	r7, sp, #0
	.cfi_def_cfa_register 7
	.loc 1 84 0
	movs	r0, #10
	bl	PMC_EnablePeripheral
	.loc 1 85 0
	movs	r0, #12
	bl	PMC_EnablePeripheral
	.loc 1 88 0
	ldr	r3, .L12
	mov	r2, #8388608
	str	r2, [r3]
	.loc 1 89 0
	ldr	r3, .L12+4
	mov	r2, #512
	str	r2, [r3]
	.loc 1 91 0
	ldr	r3, .L12
	mov	r2, #8388608
	str	r2, [r3, #16]
	.loc 1 92 0
	ldr	r3, .L12+4
	mov	r2, #512
	str	r2, [r3, #16]
	.loc 1 94 0
	ldr	r2, .L12
	ldr	r3, .L12
	ldr	r3, [r3, #52]
	orr	r3, r3, #8388608
	str	r3, [r2, #52]
	.loc 1 95 0
	ldr	r2, .L12+4
	ldr	r3, .L12+4
	ldr	r3, [r3, #52]
	orr	r3, r3, #512
	str	r3, [r2, #52]
	.loc 1 96 0
	pop	{r7, pc}
.L13:
	.align	2
.L12:
	.word	1074662912
	.word	1074663936
	.cfi_endproc
.LFE126:
	.size	LedCtrl_Configure, .-LedCtrl_Configure
	.align	2
	.global	LedCtrl_BlinkingPattern
	.thumb
	.thumb_func
	.type	LedCtrl_BlinkingPattern, %function
LedCtrl_BlinkingPattern:
.LFB127:
	.loc 1 107 0
	.cfi_startproc
	@ args = 0, pretend = 0, frame = 0
	@ frame_needed = 1, uses_anonymous_args = 0
	push	{r7, lr}
	.cfi_def_cfa_offset 8
	.cfi_offset 7, -8
	.cfi_offset 14, -4
	add	r7, sp, #0
	.cfi_def_cfa_register 7
	.loc 1 111 0
	ldr	r3, .L23
	ldrb	r3, [r3]	@ zero_extendqisi2
	adds	r3, r3, #1
	uxtb	r2, r3
	ldr	r3, .L23
	strb	r2, [r3]
	.loc 1 113 0
	ldr	r3, .L23
	ldrb	r3, [r3]	@ zero_extendqisi2
	cmp	r3, #11
	beq	.L16
	cmp	r3, #11
	bgt	.L17
	cmp	r3, #1
	beq	.L18
	cmp	r3, #3
	beq	.L19
	.loc 1 135 0
	b	.L14
.L17:
	.loc 1 113 0
	cmp	r3, #13
	beq	.L20
	cmp	r3, #101
	beq	.L21
	.loc 1 135 0
	b	.L14
.L18:
	.loc 1 116 0
	movs	r0, #0
	bl	LED_TurnOn
	.loc 1 117 0
	movs	r0, #1
	bl	LED_TurnOn
	.loc 1 118 0
	b	.L14
.L16:
	.loc 1 120 0
	movs	r0, #0
	bl	LED_TurnOn
	.loc 1 121 0
	movs	r0, #1
	bl	LED_TurnOn
	.loc 1 122 0
	b	.L14
.L19:
	.loc 1 124 0
	movs	r0, #0
	bl	LED_TurnOff
	.loc 1 125 0
	movs	r0, #1
	bl	LED_TurnOff
	.loc 1 126 0
	b	.L14
.L20:
	.loc 1 128 0
	movs	r0, #0
	bl	LED_TurnOff
	.loc 1 129 0
	movs	r0, #1
	bl	LED_TurnOff
	.loc 1 130 0
	b	.L14
.L21:
	.loc 1 132 0
	ldr	r3, .L23
	movs	r2, #0
	strb	r2, [r3]
	.loc 1 133 0
	nop
.L14:
	.loc 1 137 0
	pop	{r7, pc}
.L24:
	.align	2
.L23:
	.word	LocPatternIndex.6076
	.cfi_endproc
.LFE127:
	.size	LedCtrl_BlinkingPattern, .-LedCtrl_BlinkingPattern
	.bss
LocPatternIndex.6076:
	.space	1
	.text
.Letext0:
	.file 2 "c:\\isystem\\winidea9\\gcc\\arm\\arm-none-eabi\\include\\machine\\_default_types.h"
	.file 3 "c:\\isystem\\winidea9\\gcc\\arm\\arm-none-eabi\\include\\sys\\_stdint.h"
	.file 4 "C:\\VScodeworkspace\\04_SchedulerBase\\04_SchedulerBase\\src\\Drivers/pio_regs.h"
	.file 5 "C:\\VScodeworkspace\\04_SchedulerBase\\04_SchedulerBase\\src\\LowLevel/core_cm7.h"